target datalayout = "e-m:e-p270:32:32-p271:32:32-p272:64:64-i64:64-i128:128-f80:128-n8:16:32:64-S128"
target triple = "x86_64-pc-linux-gnu"

%struct.lv_calendar_date_t = type { i16, i8, i8 }

; Function Attrs: nounwind uwtable
define internal void @year_event_cb(ptr noundef %0) #0 {
  %2 = alloca ptr, align 8
  %3 = alloca ptr, align 8
  %4 = alloca ptr, align 8
  %5 = alloca i32, align 4
  %6 = alloca ptr, align 8
  %7 = alloca ptr, align 8
  %8 = alloca i32, align 4
  %9 = alloca %struct.lv_calendar_date_t, align 2
  store ptr %0, ptr %2, align 8, !tbaa !3
  call void @llvm.lifetime.start.p0(i64 8, ptr %3) #4
  %10 = load ptr, ptr %2, align 8, !tbaa !3
  %11 = call ptr @lv_event_get_current_target(ptr noundef %10)
  store ptr %11, ptr %3, align 8, !tbaa !3
  call void @llvm.lifetime.start.p0(i64 8, ptr %4) #4
  %12 = load ptr, ptr %2, align 8, !tbaa !3
  %13 = call ptr @lv_event_get_user_data(ptr noundef %12)
  store ptr %13, ptr %4, align 8, !tbaa !3
  call void @llvm.lifetime.start.p0(i64 4, ptr %5) #4
  %14 = load ptr, ptr %3, align 8, !tbaa !3
  %15 = call i32 @lv_dropdown_get_selected(ptr noundef %14)
  store i32 %15, ptr %5, align 4, !tbaa !7
  call void @llvm.lifetime.start.p0(i64 8, ptr %6) #4
  %16 = load ptr, ptr %4, align 8, !tbaa !3
  %17 = call ptr @lv_calendar_get_showed_date(ptr noundef %16)
  store ptr %17, ptr %6, align 8, !tbaa !3
  call void @llvm.lifetime.start.p0(i64 8, ptr %7) #4
  %18 = load ptr, ptr %3, align 8, !tbaa !3
  %19 = call ptr @lv_dropdown_get_options(ptr noundef %18)
  store ptr %19, ptr %7, align 8, !tbaa !3
  call void @llvm.lifetime.start.p0(i64 4, ptr %8) #4
  %20 = load ptr, ptr %7, align 8, !tbaa !3
  %21 = getelementptr inbounds i8, ptr %20, i64 0
  %22 = load i8, ptr %21, align 1, !tbaa !9
  %23 = sext i8 %22 to i32
  %24 = sub nsw i32 %23, 48
  %25 = mul nsw i32 %24, 1000
  %26 = load ptr, ptr %7, align 8, !tbaa !3
  %27 = getelementptr inbounds i8, ptr %26, i64 1
  %28 = load i8, ptr %27, align 1, !tbaa !9
  %29 = sext i8 %28 to i32
  %30 = sub nsw i32 %29, 48
  %31 = mul nsw i32 %30, 100
  %32 = add nsw i32 %25, %31
  %33 = load ptr, ptr %7, align 8, !tbaa !3
  %34 = getelementptr inbounds i8, ptr %33, i64 2
  %35 = load i8, ptr %34, align 1, !tbaa !9
  %36 = sext i8 %35 to i32
  %37 = sub nsw i32 %36, 48
  %38 = mul nsw i32 %37, 10
  %39 = add nsw i32 %32, %38
  %40 = load ptr, ptr %7, align 8, !tbaa !3
  %41 = getelementptr inbounds i8, ptr %40, i64 3
  %42 = load i8, ptr %41, align 1, !tbaa !9
  %43 = sext i8 %42 to i32
  %44 = sub nsw i32 %43, 48
  %45 = add nsw i32 %39, %44
  store i32 %45, ptr %8, align 4, !tbaa !7
  call void @llvm.lifetime.start.p0(i64 4, ptr %9) #4
  %46 = load ptr, ptr %6, align 8, !tbaa !3
  call void @llvm.memcpy.p0.p0.i64(ptr align 2 %9, ptr align 2 %46, i64 4, i1 false), !tbaa.struct !10
  %47 = load i32, ptr %8, align 4, !tbaa !7
  %48 = load i32, ptr %5, align 4, !tbaa !7
  %49 = sub i32 %47, %48
  %50 = trunc i32 %49 to i16
  %51 = getelementptr inbounds nuw %struct.lv_calendar_date_t, ptr %9, i32 0, i32 0
  store i16 %50, ptr %51, align 2, !tbaa !13
  %52 = load ptr, ptr %4, align 8, !tbaa !3
  %53 = getelementptr inbounds nuw %struct.lv_calendar_date_t, ptr %9, i32 0, i32 0
  %54 = load i16, ptr %53, align 2, !tbaa !13
  %55 = zext i16 %54 to i32
  %56 = getelementptr inbounds nuw %struct.lv_calendar_date_t, ptr %9, i32 0, i32 1
  %57 = load i8, ptr %56, align 2, !tbaa !15
  %58 = sext i8 %57 to i32
  call void @lv_calendar_set_showed_date(ptr noundef %52, i32 noundef %55, i32 noundef %58)
  call void @llvm.lifetime.end.p0(i64 4, ptr %9) #4
  call void @llvm.lifetime.end.p0(i64 4, ptr %8) #4
  call void @llvm.lifetime.end.p0(i64 8, ptr %7) #4
  call void @llvm.lifetime.end.p0(i64 8, ptr %6) #4
  call void @llvm.lifetime.end.p0(i64 4, ptr %5) #4
  call void @llvm.lifetime.end.p0(i64 8, ptr %4) #4
  call void @llvm.lifetime.end.p0(i64 8, ptr %3) #4
  ret void
}