; Function Attrs: nounwind uwtable
define internal void @year_event_cb(ptr noundef %0) #0 {
  %2 = tail call ptr @lv_event_get_current_target(ptr noundef %0) #2
  %3 = tail call ptr @lv_event_get_user_data(ptr noundef %0) #2
  %4 = tail call i32 @lv_dropdown_get_selected(ptr noundef %2) #2
  %5 = tail call ptr @lv_calendar_get_showed_date(ptr noundef %3) #2
  %6 = tail call ptr @lv_dropdown_get_options(ptr noundef %2) #2
  %7 = load i8, ptr %6, align 1, !tbaa !3
  %8 = sext i8 %7 to i32
  %9 = mul nsw i32 %8, 1000
  %10 = getelementptr inbounds i8, ptr %6, i64 1
  %11 = load i8, ptr %10, align 1, !tbaa !3
  %12 = sext i8 %11 to i32
  %13 = mul nsw i32 %12, 100
  %14 = getelementptr inbounds i8, ptr %6, i64 2
  %15 = load i8, ptr %14, align 1, !tbaa !3
  %16 = sext i8 %15 to i32
  %17 = mul nsw i32 %16, 10
  %18 = getelementptr inbounds i8, ptr %6, i64 3
  %19 = load i8, ptr %18, align 1, !tbaa !3
  %20 = sext i8 %19 to i32
  %.sroa.5.0..sroa_idx = getelementptr inbounds i8, ptr %5, i64 2
  %.sroa.5.0.copyload = load i8, ptr %.sroa.5.0..sroa_idx, align 2, !tbaa !3
  %reass.sub = sub i32 %9, %4
  %21 = add i32 %reass.sub, 12208
  %22 = add i32 %21, %13
  %23 = add i32 %22, %17
  %24 = add i32 %23, %20
  %25 = and i32 %24, 65535
  %26 = sext i8 %.sroa.5.0.copyload to i32
  tail call void @lv_calendar_set_showed_date(ptr noundef %3, i32 noundef %25, i32 noundef %26) #2
  ret void
}